target datalayout = "e-m:e-p270:32:32-p271:32:32-p272:64:64-i64:64-i128:128-f80:128-n8:16:32:64-S128"
target triple = "x86_64-pc-linux-gnu"

@.str.3 = private unnamed_addr constant [2 x i8] c"\0A\00", align 1
@.str.4 = private unnamed_addr constant [34 x i8] c"    tribuf [options] [selection]\0A\00", align 1
@.str.5 = private unnamed_addr constant [70 x i8] c"This pass transforms $mux cells with 'z' inputs to tristate buffers.\0A\00", align 1
@.str.6 = private unnamed_addr constant [12 x i8] c"    -merge\0A\00", align 1
@.str.7 = private unnamed_addr constant [63 x i8] c"        merge multiple tri-state buffers driving the same net\0A\00", align 1
@.str.8 = private unnamed_addr constant [31 x i8] c"        into a single buffer.\0A\00", align 1
@.str.9 = private unnamed_addr constant [12 x i8] c"    -logic\0A\00", align 1
@.str.10 = private unnamed_addr constant [66 x i8] c"        convert tri-state buffers that do not drive output ports\0A\00", align 1
@.str.11 = private unnamed_addr constant [60 x i8] c"        to non-tristate logic. this option implies -merge.\0A\00", align 1
@.str.12 = private unnamed_addr constant [13 x i8] c"    -formal\0A\00", align 1
@.str.13 = private unnamed_addr constant [65 x i8] c"        convert all tri-state buffers to non-tristate logic and\0A\00", align 1
@.str.14 = private unnamed_addr constant [68 x i8] c"        add a formal assertion that no two buffers are driving the\0A\00", align 1
@.str.15 = private unnamed_addr constant [62 x i8] c"        same net simultaneously. this option implies -merge.\0A\00", align 1

; Function Attrs: mustprogress uwtable
define internal void @_ZN12_GLOBAL__N_110TribufPass4helpEv(ptr noundef nonnull align 8 dereferenceable(104) %0) unnamed_addr #4 align 2 {
  %2 = alloca ptr, align 8
  store ptr %0, ptr %2, align 8
  call void (ptr, ...) @_ZN5Yosys3logEPKcz(ptr noundef @.str.3)
  call void (ptr, ...) @_ZN5Yosys3logEPKcz(ptr noundef @.str.4)
  call void (ptr, ...) @_ZN5Yosys3logEPKcz(ptr noundef @.str.3)
  call void (ptr, ...) @_ZN5Yosys3logEPKcz(ptr noundef @.str.5)
  call void (ptr, ...) @_ZN5Yosys3logEPKcz(ptr noundef @.str.3)
  call void (ptr, ...) @_ZN5Yosys3logEPKcz(ptr noundef @.str.6)
  call void (ptr, ...) @_ZN5Yosys3logEPKcz(ptr noundef @.str.7)
  call void (ptr, ...) @_ZN5Yosys3logEPKcz(ptr noundef @.str.8)
  call void (ptr, ...) @_ZN5Yosys3logEPKcz(ptr noundef @.str.3)
  call void (ptr, ...) @_ZN5Yosys3logEPKcz(ptr noundef @.str.9)
  call void (ptr, ...) @_ZN5Yosys3logEPKcz(ptr noundef @.str.10)
  call void (ptr, ...) @_ZN5Yosys3logEPKcz(ptr noundef @.str.11)
  call void (ptr, ...) @_ZN5Yosys3logEPKcz(ptr noundef @.str.3)
  call void (ptr, ...) @_ZN5Yosys3logEPKcz(ptr noundef @.str.12)
  call void (ptr, ...) @_ZN5Yosys3logEPKcz(ptr noundef @.str.13)
  call void (ptr, ...) @_ZN5Yosys3logEPKcz(ptr noundef @.str.14)
  call void (ptr, ...) @_ZN5Yosys3logEPKcz(ptr noundef @.str.15)
  call void (ptr, ...) @_ZN5Yosys3logEPKcz(ptr noundef @.str.3)
  ret void
}